; Function Attrs: mustprogress uwtable
define hidden void @_ZN2cv8ximgproc12segmentation31SelectiveSearchSegmentationImpl8addImageERKNS_11_InputArrayE(ptr noundef nonnull align 8 dereferenceable(208) %0, ptr noundef nonnull align 8 dereferenceable(24) %1) unnamed_addr #3 align 2 personality ptr @__gxx_personality_v0 {
  %3 = alloca %"class.cv::Mat", align 8
  %4 = getelementptr inbounds nuw i8, ptr %0, i64 136
  call void @llvm.lifetime.start.p0(i64 96, ptr nonnull %3) #29
  %5 = tail call noundef i32 @_ZNK2cv11_InputArray4kindEv(ptr noundef nonnull align 8 dereferenceable(24) %1), !noalias !275
  %6 = icmp eq i32 %5, 65536
  br i1 %6, label %7, label %10

7:                                                ; preds = %2
  %8 = getelementptr inbounds nuw i8, ptr %1, i64 8
  %9 = load ptr, ptr %8, align 8, !tbaa !6, !noalias !275
  call void @_ZN2cv3MatC1ERKS0_(ptr noundef nonnull align 8 dereferenceable(96) %3, ptr noundef nonnull align 8 dereferenceable(96) %9)
  br label %_ZNK2cv11_InputArray6getMatEi.exit

10:                                               ; preds = %2
  call void @_ZNK2cv11_InputArray7getMat_Ei(ptr dead_on_unwind nonnull writable sret(%"class.cv::Mat") align 8 %3, ptr noundef nonnull align 8 dereferenceable(24) %1, i32 noundef -1)
  br label %_ZNK2cv11_InputArray6getMatEi.exit

_ZNK2cv11_InputArray6getMatEi.exit:               ; preds = %7, %10
  %11 = getelementptr inbounds nuw i8, ptr %0, i64 144
  %12 = load ptr, ptr %11, align 8, !tbaa !69
  %13 = getelementptr inbounds nuw i8, ptr %0, i64 152
  %14 = load ptr, ptr %13, align 8, !tbaa !231
  %.not.i.i = icmp eq ptr %12, %14
  br i1 %.not.i.i, label %18, label %15

15:                                               ; preds = %_ZNK2cv11_InputArray6getMatEi.exit
  call void @_ZN2cv3MatC1EOS0_(ptr noundef nonnull align 8 dereferenceable(96) %12, ptr noundef nonnull align 8 dereferenceable(96) %3) #29
  %16 = load ptr, ptr %11, align 8, !tbaa !69
  %17 = getelementptr inbounds nuw i8, ptr %16, i64 96
  store ptr %17, ptr %11, align 8, !tbaa !69
  br label %_ZNSt6vectorIN2cv3MatESaIS1_EE9push_backEOS1_.exit

18:                                               ; preds = %_ZNK2cv11_InputArray6getMatEi.exit
  invoke void @_ZNSt6vectorIN2cv3MatESaIS1_EE17_M_realloc_insertIJS1_EEEvN9__gnu_cxx17__normal_iteratorIPS1_S3_EEDpOT_(ptr noundef nonnull align 8 dereferenceable(24) %4, ptr %12, ptr noundef nonnull align 8 dereferenceable(96) %3)
          to label %_ZNSt6vectorIN2cv3MatESaIS1_EE9push_backEOS1_.exit unwind label %19

_ZNSt6vectorIN2cv3MatESaIS1_EE9push_backEOS1_.exit: ; preds = %15, %18
  call void @_ZN2cv3MatD1Ev(ptr noundef nonnull align 8 dereferenceable(96) %3) #29
  call void @llvm.lifetime.end.p0(i64 96, ptr nonnull %3) #29
  ret void

19:                                               ; preds = %18
  %20 = landingpad { ptr, i32 }
          cleanup
  call void @_ZN2cv3MatD1Ev(ptr noundef nonnull align 8 dereferenceable(96) %3) #29
  call void @llvm.lifetime.end.p0(i64 96, ptr nonnull %3) #29
  resume { ptr, i32 } %20
}